; Function Attrs: mustprogress uwtable
define hidden void @_ZN2cv11bioinspired17BasicRetinaFilter25_localLuminanceAdaptationEPfPKf(ptr noundef nonnull readonly align 8 captures(none) dereferenceable(168) %0, ptr noundef %1, ptr noundef %2) local_unnamed_addr #3 align 2 personality ptr @__gxx_personality_v0 {
  %4 = alloca %"class.cv::Range", align 4
  %5 = alloca %"class.cv::bioinspired::BasicRetinaFilter::Parallel_localAdaptation", align 8
  %6 = getelementptr inbounds nuw i8, ptr %0, i64 48
  %7 = load i64, ptr %6, align 8, !tbaa !19
  %.phi.trans.insert20.i = getelementptr inbounds nuw i8, ptr %0, i64 148
  %.pre21.i = load float, ptr %.phi.trans.insert20.i, align 4, !tbaa !68
  %.phi.trans.insert22.i = getelementptr inbounds nuw i8, ptr %0, i64 152
  %.pre23.i = load float, ptr %.phi.trans.insert22.i, align 8, !tbaa !70
  %.pre24.i = trunc i64 %7 to i32
  call void @llvm.lifetime.start.p0(i64 8, ptr nonnull %4) #19
  store i32 0, ptr %4, align 4, !tbaa !71
  %8 = getelementptr inbounds nuw i8, ptr %4, i64 4
  store i32 %.pre24.i, ptr %8, align 4, !tbaa !73
  call void @llvm.lifetime.start.p0(i64 48, ptr nonnull %5) #19
  %9 = getelementptr inbounds nuw i8, ptr %0, i64 140
  %10 = load float, ptr %9, align 4, !tbaa !25
  store ptr getelementptr inbounds nuw inrange(-16, 24) (i8, ptr @_ZTVN2cv11bioinspired17BasicRetinaFilter24Parallel_localAdaptationE, i64 16), ptr %5, align 8, !tbaa !13
  %11 = getelementptr inbounds nuw i8, ptr %5, i64 8
  store ptr %2, ptr %11, align 8, !tbaa !74
  %12 = getelementptr inbounds nuw i8, ptr %5, i64 16
  store ptr %1, ptr %12, align 8, !tbaa !77
  %13 = getelementptr inbounds nuw i8, ptr %5, i64 24
  store ptr %1, ptr %13, align 8, !tbaa !78
  %14 = getelementptr inbounds nuw i8, ptr %5, i64 32
  store float %.pre21.i, ptr %14, align 8, !tbaa !79
  %15 = getelementptr inbounds nuw i8, ptr %5, i64 36
  store float %.pre23.i, ptr %15, align 4, !tbaa !80
  %16 = getelementptr inbounds nuw i8, ptr %5, i64 40
  store float %10, ptr %16, align 8, !tbaa !81
  invoke void @_ZN2cv13parallel_for_ERKNS_5RangeERKNS_16ParallelLoopBodyEd(ptr noundef nonnull align 4 dereferenceable(8) %4, ptr noundef nonnull align 8 dereferenceable(8) %5, double noundef -1.000000e+00)
          to label %_ZN2cv11bioinspired17BasicRetinaFilter25_localLuminanceAdaptationEPKfS3_Pfb.exit unwind label %17

17:                                               ; preds = %3
  %18 = landingpad { ptr, i32 }
          cleanup
  call void @_ZN2cv16ParallelLoopBodyD2Ev(ptr noundef nonnull align 8 dereferenceable(44) %5) #19
  call void @llvm.lifetime.end.p0(i64 48, ptr nonnull %5) #19
  call void @llvm.lifetime.end.p0(i64 8, ptr nonnull %4) #19
  resume { ptr, i32 } %18

_ZN2cv11bioinspired17BasicRetinaFilter25_localLuminanceAdaptationEPKfS3_Pfb.exit: ; preds = %3
  call void @_ZN2cv16ParallelLoopBodyD2Ev(ptr noundef nonnull align 8 dereferenceable(44) %5) #19
  call void @llvm.lifetime.end.p0(i64 48, ptr nonnull %5) #19
  call void @llvm.lifetime.end.p0(i64 8, ptr nonnull %4) #19
  ret void
}